(lp0
(iClasses
Region
p1
(dp2
S'tag'
p3
S'16'
p4
sS'material_prop'
p5
(dp6
S'mu'
p7
I1
sS'epsilon'
p8
I1
ssS'name'
p9
S'Air'
p10
sba(iClasses
Region
p11
(dp12
g3
S'17'
p13
sg5
(dp14
g7
I1
sg8
I10
ssg9
S'Dielectric'
p15
sba.