(lp0
(iClasses
Region
p1
(dp2
S'tag'
p3
S'30'
p4
sS'material_prop'
p5
(dp6
S'mu'
p7
I1
sS'epsilon'
p8
I1
ssS'name'
p9
S'Air'
p10
sS'elements'
p11
(dp12
sba(iClasses
Region
p13
(dp14
g3
S'31'
p15
sg5
(dp16
g7
I1
sg8
I2
ssg9
S'Dielectric'
p17
sg11
g12
sba.